cnumpy.core.multiarray
_reconstruct
p0
(cnumpy
ndarray
p1
(I0
tp2
S'b'
p3
tp4
Rp5
(I1
(I186
tp6
cnumpy
dtype
p7
(S'O4'
p8
I0
I1
tp9
Rp10
(I3
S'|'
p11
NNNI-1
I-1
I63
tp12
bI00
(lp13
(dp14
S'59d638667bfe0b5f22bd6436: Deproach Mount'
p15
(lp16
I0
asa(dp17
g15
(lp18
I1
asa(dp19
g15
(lp20
I2
asa(dp21
S'59d638667bfe0b5f22bd6449: Pitasc - Insert Upright'
p22
(lp23
I3
asa(dp24
g22
(lp25
I4
asa(dp26
g22
(lp27
I5
asa(dp28
S'59d638667bfe0b5f22bd6437: Open wsg50 gripper'
p29
(lp30
I6
asa(dp31
g29
(lp32
I7
asa(dp33
g29
(lp34
I8
asa(dp35
S'59d638667bfe0b5f22bd6420: Motek - Erebus Unmount'
p36
(lp37
I9
asa(dp38
g36
(lp39
I10
asa(dp40
g36
(lp41
I11
asa(dp42
S'59d638667bfe0b5f22bd645f: Pick Erebus'
p43
(lp44
I12
asa(dp45
g43
(lp46
I13
asa(dp47
g43
(lp48
I14
asa(dp49
S'59d638667bfe0b5f22bd6458: Denso Take Arm'
p50
(lp51
I16
asa(dp52
g50
(lp53
I17
asa(dp54
S'59d638667bfe0b5f22bd6450: Pickposition'
p55
(lp56
I18
asa(dp57
g55
(lp58
I19
asa(dp59
g55
(lp60
I20
asa(dp61
S'59d638667bfe0b5f22bd6461: Open wsg50 gripper'
p62
(lp63
I21
asa(dp64
g62
(lp65
I22
asa(dp66
g62
(lp67
I23
asa(dp68
S'59d638667bfe0b5f22bd6433: Unmount Position'
p69
(lp70
I24
asa(dp71
g69
(lp72
I25
asa(dp73
g69
(lp74
I26
asa(dp75
S'59d638667bfe0b5f22bd6434: Open wsg50 gripper'
p76
(lp77
I27
asa(dp78
g76
(lp79
I28
asa(dp80
g76
(lp81
I29
asa(dp82
S'59d638667bfe0b5f22bd6423: Tray'
p83
(lp84
I30
asa(dp85
g83
(lp86
I31
asa(dp87
g83
(lp88
I32
asa(dp89
S'59d638667bfe0b5f22bd6457: Pitasc-Sub - Erebus Mount Part'
p90
(lp91
I33
asa(dp92
g90
(lp93
I34
asa(dp94
g90
(lp95
I35
asa(dp96
S'59db526ed39e2d65b2ba2525: Denso Take Arm'
p97
(lp98
I36
asa(dp99
g97
(lp100
I37
asa(dp101
g97
(lp102
I38
asa(dp103
S'59d638667bfe0b5f22bd644e: Mount Position'
p104
(lp105
I39
asa(dp106
g104
(lp107
I40
asa(dp108
g104
(lp109
I41
asa(dp110
S'59d638667bfe0b5f22bd645b: Denso Give Arm'
p111
(lp112
I42
asa(dp113
g111
(lp114
I43
asa(dp115
g111
(lp116
I44
asa(dp117
S'59d638667bfe0b5f22bd6431: Tray'
p118
(lp119
I45
asa(dp120
g118
(lp121
I46
asa(dp122
g118
(lp123
I47
asa(dp124
S'59d64b0a7bfe0b5f22bd6466: Homeposition'
p125
(lp126
I48
asa(dp127
S'59d638667bfe0b5f22bd644c: Tilt to Approach'
p128
(lp129
I49
asa(dp130
g128
(lp131
I50
asa(dp132
g128
(lp133
I51
asa(dp134
S'59d638667bfe0b5f22bd643c: Denso Give Arm'
p135
(lp136
I52
asa(dp137
g135
(lp138
I53
asa(dp139
g135
(lp140
I54
asa(dp141
S'59d638667bfe0b5f22bd642a: Tray'
p142
(lp143
I55
asa(dp144
g142
(lp145
I56
asa(dp146
g142
(lp147
I57
asa(dp148
S'59d638667bfe0b5f22bd642d: Open wsg50 gripper'
p149
(lp150
I58
asa(dp151
g149
(lp152
I59
asa(dp153
g149
(lp154
I60
asa(dp155
S'59d638667bfe0b5f22bd644a: Pitasc - Move Into Contact'
p156
(lp157
I61
asa(dp158
g156
(lp159
I62
asa(dp160
g156
(lp161
I63
asa(dp162
S'59d638667bfe0b5f22bd643e: Mount Position'
p163
(lp164
I64
asa(dp165
g163
(lp166
I65
asa(dp167
g163
(lp168
I66
asa(dp169
S'59d638667bfe0b5f22bd645a: Pitasc - Move Into Contact'
p170
(lp171
I67
asa(dp172
g170
(lp173
I68
asa(dp174
g170
(lp175
I69
asa(dp176
S'59d638667bfe0b5f22bd6442: Open wsg50 gripper'
p177
(lp178
I70
asa(dp179
g177
(lp180
I71
asa(dp181
g177
(lp182
I72
asa(dp183
S'59d638667bfe0b5f22bd6455: Deproach from Mount'
p184
(lp185
I73
asa(dp186
g184
(lp187
I74
asa(dp188
g184
(lp189
I75
asa(dp190
S'59d638667bfe0b5f22bd643b: Pitasc - Move Into Contact'
p191
(lp192
I76
asa(dp193
g191
(lp194
I77
asa(dp195
g191
(lp196
I78
asa(dp197
S'59d638667bfe0b5f22bd6435: Motek - Black Part Mount'
p198
(lp199
I79
asa(dp200
g198
(lp201
I80
asa(dp202
g198
(lp203
I81
asa(dp204
S'59d638667bfe0b5f22bd6425: Mount'
p205
(lp206
I82
asa(dp207
g205
(lp208
I83
asa(dp209
g205
(lp210
I84
asa(dp211
S'59d638667bfe0b5f22bd644f: Pick White Part'
p212
(lp213
I85
asa(dp214
g212
(lp215
I86
asa(dp216
g212
(lp217
I87
asa(dp218
S'59d638667bfe0b5f22bd6422: Place Erebus'
p219
(lp220
I88
asa(dp221
g219
(lp222
I89
asa(dp223
g219
(lp224
I90
asa(dp225
S'59cd0fcdb6de2e68df0d72f3: Infinite Loop'
p226
(lp227
I91
asa(dp228
S'59d638667bfe0b5f22bd6430: Place Black Part'
p229
(lp230
I92
asa(dp231
g229
(lp232
I93
asa(dp233
g229
(lp234
I94
asa(dp235
S'59d638667bfe0b5f22bd6445: Open wsg50 gripper'
p236
(lp237
I95
asa(dp238
g236
(lp239
I96
asa(dp240
g236
(lp241
I97
asa(dp242
S'59d638667bfe0b5f22bd6428: Final'
p243
(lp244
I98
asa(dp245
g243
(lp246
I99
asa(dp247
g243
(lp248
I100
asa(dp249
S'59d638667bfe0b5f22bd6429: Place White Part'
p250
(lp251
I101
asa(dp252
g250
(lp253
I102
asa(dp254
g250
(lp255
I103
asa(dp256
S'59d638667bfe0b5f22bd6439: Denso Take Arm'
p257
(lp258
I104
asa(dp259
g257
(lp260
I105
asa(dp261
g257
(lp262
I106
asa(dp263
S'59d638667bfe0b5f22bd6448: Pitasc - Push Duration'
p264
(lp265
I107
asa(dp266
g264
(lp267
I108
asa(dp268
g264
(lp269
I109
asa(dp270
S'59d638667bfe0b5f22bd642e: Motek - Black Part Unmount'
p271
(lp272
I110
asa(dp273
g271
(lp274
I111
asa(dp275
g271
(lp276
I112
asa(dp277
S'59d638667bfe0b5f22bd6440: Pickposition'
p278
(lp279
I113
asa(dp280
g278
(lp281
I114
asa(dp282
g278
(lp283
I115
asa(dp284
S'59d638667bfe0b5f22bd643a: Pitasc - Push Duration'
p285
(lp286
I116
asa(dp287
g285
(lp288
I117
asa(dp289
g285
(lp290
I118
asa(dp291
S'59d638667bfe0b5f22bd6454: Motek - Erebus Mount'
p292
(lp293
I119
asa(dp294
g292
(lp295
I120
asa(dp296
g292
(lp297
I121
asa(dp298
S'59d638667bfe0b5f22bd6426: Init open gripper'
p299
(lp300
I122
asa(dp301
g299
(lp302
I123
asa(dp303
g299
(lp304
I124
asa(dp305
S'59d638667bfe0b5f22bd6421: Final'
p306
(lp307
I125
asa(dp308
g306
(lp309
I126
asa(dp310
g306
(lp311
I127
asa(dp312
S'59d638667bfe0b5f22bd6444: Final'
p313
(lp314
I128
asa(dp315
g313
(lp316
I129
asa(dp317
g313
(lp318
I130
asa(dp319
S'59d638667bfe0b5f22bd6438: Pitasc-Sub - Black Mount Part'
p320
(lp321
I131
asa(dp322
g320
(lp323
I132
asa(dp324
g320
(lp325
I133
asa(dp326
S'59d638667bfe0b5f22bd642b: Pick White Part'
p327
(lp328
I134
asa(dp329
g327
(lp330
I135
asa(dp331
g327
(lp332
I136
asa(dp333
S'59d638667bfe0b5f22bd6446: Pitasc-Sub - White Part Mount Tilted'
p334
(lp335
I137
asa(dp336
g334
(lp337
I138
asa(dp338
g334
(lp339
I139
asa(dp340
S'59d638667bfe0b5f22bd645d: Mount Erebus'
p341
(lp342
I140
asa(dp343
g341
(lp344
I141
asa(dp345
g341
(lp346
I142
asa(dp347
S'59d638667bfe0b5f22bd6427: Motek - White Part Unmount'
p348
(lp349
I143
asa(dp350
g348
(lp351
I144
asa(dp352
g348
(lp353
I145
asa(dp354
S'59d638667bfe0b5f22bd6424: Pick Erebus'
p355
(lp356
I146
asa(dp357
g355
(lp358
I147
asa(dp359
g355
(lp360
I148
asa(dp361
S'59d638667bfe0b5f22bd6463: Move Cartesian'
p362
(lp363
I149
asa(dp364
g362
(lp365
I150
asa(dp366
g362
(lp367
I151
asa(dp368
g362
(lp369
I152
asa(dp370
S'59d64b0a7bfe0b5f22bd6464: Tare Force Sensor'
p371
(lp372
I153
asa(dp373
S'59d638667bfe0b5f22bd6432: Pick Black Part'
p374
(lp375
I154
asa(dp376
g374
(lp377
I155
asa(dp378
g374
(lp379
I156
asa(dp380
S'59d638667bfe0b5f22bd644b: Denso Give Arm'
p381
(lp382
I157
asa(dp383
g381
(lp384
I158
asa(dp385
g381
(lp386
I159
asa(dp387
S'59d638667bfe0b5f22bd645e: Close wsg50 gripper'
p388
(lp389
I160
asa(dp390
g388
(lp391
I161
asa(dp392
g388
(lp393
I162
asa(dp394
S'59d638667bfe0b5f22bd642c: Unmount Position'
p395
(lp396
I163
asa(dp397
g395
(lp398
I164
asa(dp399
g395
(lp400
I165
asa(dp401
S'59d638667bfe0b5f22bd6456: Open wsg50 gripper'
p402
(lp403
I166
asa(dp404
g402
(lp405
I167
asa(dp406
g402
(lp407
I168
asa(dp408
S'59d638667bfe0b5f22bd643f: Pick Black Part'
p409
(lp410
I169
asa(dp411
g409
(lp412
I170
asa(dp413
g409
(lp414
I171
asa(dp415
S'59d638667bfe0b5f22bd6451: Open wsg50 gripper'
p416
(lp417
I172
asa(dp418
g416
(lp419
I173
asa(dp420
g416
(lp421
I174
asa(dp422
S'59db526ed39e2d65b2ba2524: Motek 2017 - Full Demo V2.2'
p423
(lp424
I175
asa(dp425
S'59d638667bfe0b5f22bd6443: Motek - White Part Mount Tilted'
p426
(lp427
I176
asa(dp428
g426
(lp429
I177
asa(dp430
g426
(lp431
I178
asa(dp432
S'59d638667bfe0b5f22bd6462: Homeposition'
p433
(lp434
I179
asa(dp435
g433
(lp436
I180
asa(dp437
g433
(lp438
I181
asa(dp439
g433
(lp440
I182
asa(dp441
S'59cd0890b6de2e68df0d72eb: Pitasc - Init Pitek 2017'
p442
(lp443
I183
asa(dp444
S'59d638667bfe0b5f22bd642f: Final'
p445
(lp446
I184
asa(dp447
g445
(lp448
I185
asa(dp449
g445
(lp450
I186
asatp451
b.